target datalayout = "e-m:e-p270:32:32-p271:32:32-p272:64:64-i64:64-i128:128-f80:128-n8:16:32:64-S128"
target triple = "x86_64-pc-linux-gnu"

%union.ufmt_args = type { i64 }
%struct.u_printf_stream_handler = type { ptr, ptr }

; Function Attrs: mustprogress uwtable
define internal noundef i32 @_ZL22u_printf_uchar_handlerPK23u_printf_stream_handlerPvP13ULocaleBundlePK18u_printf_spec_infoPK9ufmt_args(ptr noundef %0, ptr noundef %1, ptr noundef %2, ptr noundef %3, ptr noundef %4) #0 {
  %6 = alloca ptr, align 8
  %7 = alloca ptr, align 8
  %8 = alloca ptr, align 8
  %9 = alloca ptr, align 8
  %10 = alloca ptr, align 8
  %11 = alloca i32, align 4
  %12 = alloca i16, align 2
  store ptr %0, ptr %6, align 8, !tbaa !3
  store ptr %1, ptr %7, align 8, !tbaa !10
  store ptr %2, ptr %8, align 8, !tbaa !13
  store ptr %3, ptr %9, align 8, !tbaa !19
  store ptr %4, ptr %10, align 8, !tbaa !21
  call void @llvm.lifetime.start.p0(i64 4, ptr %11) #9
  store i32 0, ptr %11, align 4, !tbaa !36
  call void @llvm.lifetime.start.p0(i64 2, ptr %12) #9
  %13 = load ptr, ptr %10, align 8, !tbaa !21
  %14 = getelementptr inbounds %union.ufmt_args, ptr %13, i64 0
  %15 = load i64, ptr %14, align 8, !tbaa !69
  %16 = trunc i64 %15 to i16
  store i16 %16, ptr %12, align 2, !tbaa !30
  %17 = load ptr, ptr %6, align 8, !tbaa !3
  %18 = getelementptr inbounds nuw %struct.u_printf_stream_handler, ptr %17, i32 0, i32 1
  %19 = load ptr, ptr %18, align 8, !tbaa !85
  %20 = load ptr, ptr %7, align 8, !tbaa !10
  %21 = load ptr, ptr %9, align 8, !tbaa !19
  %22 = call noundef i32 %19(ptr noundef %20, ptr noundef %21, ptr noundef %12, i32 noundef 1)
  store i32 %22, ptr %11, align 4, !tbaa !36
  %23 = load i32, ptr %11, align 4, !tbaa !36
  call void @llvm.lifetime.end.p0(i64 2, ptr %12) #9
  call void @llvm.lifetime.end.p0(i64 4, ptr %11) #9
  ret i32 %23
}