; Function Attrs: mustprogress uwtable
define internal noundef i32 @_ZL22u_printf_uchar_handlerPK23u_printf_stream_handlerPvP13ULocaleBundlePK18u_printf_spec_infoPK9ufmt_args(ptr noundef readonly captures(none) %0, ptr noundef %1, ptr readnone captures(none) %2, ptr noundef %3, ptr noundef readonly captures(none) %4) #0 {
  %6 = alloca i16, align 2
  call void @llvm.lifetime.start.p0(i64 2, ptr nonnull %6) #9
  %7 = load i64, ptr %4, align 8, !tbaa !20
  %8 = trunc i64 %7 to i16
  store i16 %8, ptr %6, align 2, !tbaa !12
  %9 = getelementptr inbounds nuw i8, ptr %0, i64 8
  %10 = load ptr, ptr %9, align 8, !tbaa !64
  %11 = call noundef i32 %10(ptr noundef %1, ptr noundef %3, ptr noundef nonnull %6, i32 noundef 1)
  call void @llvm.lifetime.end.p0(i64 2, ptr nonnull %6) #9
  ret i32 %11
}